target datalayout = "e-m:e-p270:32:32-p271:32:32-p272:64:64-i64:64-i128:128-f80:128-n8:16:32:64-S128"
target triple = "x86_64-pc-linux-gnu"

@.str.4 = private unnamed_addr constant [2 x i8] c"r\00", align 1

; Function Attrs: nounwind uwtable
define ptr @cl_get_pkey_file(ptr noundef %0) #0 {
  %2 = alloca ptr, align 8
  %3 = alloca ptr, align 8
  %4 = alloca ptr, align 8
  %5 = alloca ptr, align 8
  %6 = alloca i32, align 4
  store ptr %0, ptr %3, align 8, !tbaa !3
  call void @llvm.lifetime.start.p0(i64 8, ptr %4) #8
  call void @llvm.lifetime.start.p0(i64 8, ptr %5) #8
  %7 = load ptr, ptr %3, align 8, !tbaa !3
  %8 = call noalias ptr @fopen(ptr noundef %7, ptr noundef @.str.4)
  store ptr %8, ptr %5, align 8, !tbaa !22
  %9 = load ptr, ptr %5, align 8, !tbaa !22
  %10 = icmp ne ptr %9, null
  br i1 %10, label %12, label %11

11:                                               ; preds = %1
  store ptr null, ptr %2, align 8
  store i32 1, ptr %6, align 4
  br label %23

12:                                               ; preds = %1
  %13 = load ptr, ptr %5, align 8, !tbaa !22
  %14 = call ptr @PEM_read_PrivateKey(ptr noundef %13, ptr noundef null, ptr noundef null, ptr noundef null)
  store ptr %14, ptr %4, align 8, !tbaa !24
  %15 = icmp ne ptr %14, null
  br i1 %15, label %19, label %16

16:                                               ; preds = %12
  %17 = load ptr, ptr %5, align 8, !tbaa !22
  %18 = call i32 @fclose(ptr noundef %17)
  store ptr null, ptr %2, align 8
  store i32 1, ptr %6, align 4
  br label %23

19:                                               ; preds = %12
  %20 = load ptr, ptr %5, align 8, !tbaa !22
  %21 = call i32 @fclose(ptr noundef %20)
  %22 = load ptr, ptr %4, align 8, !tbaa !24
  store ptr %22, ptr %2, align 8
  store i32 1, ptr %6, align 4
  br label %23

23:                                               ; preds = %19, %16, %11
  call void @llvm.lifetime.end.p0(i64 8, ptr %5) #8
  call void @llvm.lifetime.end.p0(i64 8, ptr %4) #8
  %24 = load ptr, ptr %2, align 8
  ret ptr %24
}