; Function Attrs: nounwind uwtable
define ptr @cl_get_pkey_file(ptr noundef readonly captures(none) %0) local_unnamed_addr #1 {
  %2 = tail call noalias ptr @fopen(ptr noundef %0, ptr noundef nonnull @.str.4)
  %.not = icmp eq ptr %2, null
  br i1 %.not, label %6, label %3

3:                                                ; preds = %1
  %4 = tail call ptr @PEM_read_PrivateKey(ptr noundef nonnull %2, ptr noundef null, ptr noundef null, ptr noundef null) #12
  %5 = tail call i32 @fclose(ptr noundef nonnull %2)
  br label %6

6:                                                ; preds = %3, %1
  %.0 = phi ptr [ null, %1 ], [ %4, %3 ]
  ret ptr %.0
}